target datalayout = "e-m:e-p270:32:32-p271:32:32-p272:64:64-i64:64-i128:128-f80:128-n8:16:32:64-S128"
target triple = "x86_64-pc-linux-gnu"

%struct.H5P_genprop_t = type { ptr, i64, ptr, i32, i8, ptr, ptr, ptr, ptr, ptr, ptr, ptr, ptr, ptr }

@H5P_init_g = external global i8, align 1
@H5_libterm_g = external global i8, align 1
@.str.7 = private unnamed_addr constant [100 x i8] c"generated/home/dtcxzyw/WorkSpace/Projects/compilers/llvm-opt-benchmark/bench/hdf5/hdf5/src/H5Pint.c\00", align 1
@H5E_RESOURCE_g = external global i64, align 8
@H5E_NOSPACE_g = external global i64, align 8
@.str.20 = private unnamed_addr constant [25 x i8] c"memory allocation failed\00", align 1
@__func__.H5P__dup_prop = private unnamed_addr constant [14 x i8] c"H5P__dup_prop\00", align 1
@H5_H5P_genprop_t_reg_free_list = internal global { i8, [3 x i8], i32, i32, [4 x i8], ptr, i64, ptr } { i8 0, [3 x i8] zeroinitializer, i32 0, i32 0, [4 x i8] zeroinitializer, ptr @.str.86, i64 104, ptr null }, align 8

; Function Attrs: nounwind uwtable
define internal ptr @H5P__dup_prop(ptr noundef %0, i32 noundef %1) #0 {
  %3 = alloca ptr, align 8
  %4 = alloca i32, align 4
  %5 = alloca ptr, align 8
  %6 = alloca ptr, align 8
  %7 = alloca i8, align 1
  store ptr %0, ptr %3, align 8, !tbaa !68
  store i32 %1, ptr %4, align 4, !tbaa !3
  call void @llvm.lifetime.start.p0(i64 8, ptr %5) #8
  store ptr null, ptr %5, align 8, !tbaa !68
  call void @llvm.lifetime.start.p0(i64 8, ptr %6) #8
  store ptr null, ptr %6, align 8, !tbaa !68
  call void @llvm.lifetime.start.p0(i64 1, ptr %7) #8
  store i8 0, ptr %7, align 1, !tbaa !7
  %8 = load i8, ptr @H5P_init_g, align 1, !tbaa !7, !range !9, !noundef !10
  %9 = trunc i8 %8 to i1
  br i1 %9, label %14, label %10

10:                                               ; preds = %2
  %11 = load i8, ptr @H5_libterm_g, align 1, !tbaa !7, !range !9, !noundef !10
  %12 = trunc i8 %11 to i1
  %13 = xor i1 %12, true
  br label %14

14:                                               ; preds = %10, %2
  %15 = phi i1 [ true, %2 ], [ %13, %10 ]
  %16 = xor i1 %15, true
  %17 = xor i1 %16, true
  %18 = zext i1 %17 to i32
  %19 = sext i32 %18 to i64
  %20 = call i64 @llvm.expect.i64(i64 %19, i64 1)
  %21 = icmp ne i64 %20, 0
  br i1 %21, label %22, label %156

22:                                               ; preds = %14
  %23 = call noalias ptr @H5FL_reg_malloc(ptr noundef @H5_H5P_genprop_t_reg_free_list)
  store ptr %23, ptr %5, align 8, !tbaa !68
  %24 = icmp eq ptr null, %23
  br i1 %24, label %25, label %44

25:                                               ; preds = %22
  br label %26

26:                                               ; preds = %25
  br label %27

27:                                               ; preds = %26
  br label %28

28:                                               ; preds = %27
  %29 = load i64, ptr @H5E_RESOURCE_g, align 8, !tbaa !11
  %30 = load i64, ptr @H5E_NOSPACE_g, align 8, !tbaa !11
  %31 = call i32 (ptr, ptr, i32, i64, i64, ptr, ...) @H5E_printf_stack(ptr noundef @.str.7, ptr noundef @__func__.H5P__dup_prop, i32 noundef 1190, i64 noundef %29, i64 noundef %30, ptr noundef @.str.20)
  br label %32

32:                                               ; preds = %28
  br label %33

33:                                               ; preds = %32
  store i8 1, ptr %7, align 1, !tbaa !7
  %34 = load i8, ptr %7, align 1, !tbaa !7, !range !9, !noundef !10
  %35 = trunc i8 %34 to i1
  %36 = zext i1 %35 to i8
  store i8 %36, ptr %7, align 1, !tbaa !7
  br label %37

37:                                               ; preds = %33
  br label %38

38:                                               ; preds = %37
  br label %39

39:                                               ; preds = %38
  store ptr null, ptr %6, align 8, !tbaa !68
  br label %125

40:                                               ; No predecessors!
  br label %41

41:                                               ; preds = %40
  br label %42

42:                                               ; preds = %41
  br label %43

43:                                               ; preds = %42
  br label %44

44:                                               ; preds = %43, %22
  %45 = load ptr, ptr %5, align 8, !tbaa !68
  %46 = load ptr, ptr %3, align 8, !tbaa !68
  call void @llvm.memcpy.p0.p0.i64(ptr align 8 %45, ptr align 8 %46, i64 104, i1 false)
  %47 = load i32, ptr %4, align 4, !tbaa !3
  %48 = icmp eq i32 %47, 2
  br i1 %48, label %49, label %56

49:                                               ; preds = %44
  %50 = load ptr, ptr %3, align 8, !tbaa !68
  %51 = getelementptr inbounds nuw %struct.H5P_genprop_t, ptr %50, i32 0, i32 0
  %52 = load ptr, ptr %51, align 8, !tbaa !71
  %53 = call noalias ptr @H5MM_xstrdup(ptr noundef %52)
  %54 = load ptr, ptr %5, align 8, !tbaa !68
  %55 = getelementptr inbounds nuw %struct.H5P_genprop_t, ptr %54, i32 0, i32 0
  store ptr %53, ptr %55, align 8, !tbaa !71
  br label %81

56:                                               ; preds = %44
  %57 = load ptr, ptr %3, align 8, !tbaa !68
  %58 = getelementptr inbounds nuw %struct.H5P_genprop_t, ptr %57, i32 0, i32 3
  %59 = load i32, ptr %58, align 8, !tbaa !73
  %60 = icmp eq i32 %59, 1
  br i1 %60, label %61, label %74

61:                                               ; preds = %56
  %62 = load ptr, ptr %3, align 8, !tbaa !68
  %63 = getelementptr inbounds nuw %struct.H5P_genprop_t, ptr %62, i32 0, i32 4
  %64 = load i8, ptr %63, align 4, !tbaa !74, !range !9, !noundef !10
  %65 = trunc i8 %64 to i1
  br i1 %65, label %73, label %66

66:                                               ; preds = %61
  %67 = load ptr, ptr %3, align 8, !tbaa !68
  %68 = getelementptr inbounds nuw %struct.H5P_genprop_t, ptr %67, i32 0, i32 0
  %69 = load ptr, ptr %68, align 8, !tbaa !71
  %70 = call noalias ptr @H5MM_xstrdup(ptr noundef %69)
  %71 = load ptr, ptr %5, align 8, !tbaa !68
  %72 = getelementptr inbounds nuw %struct.H5P_genprop_t, ptr %71, i32 0, i32 0
  store ptr %70, ptr %72, align 8, !tbaa !71
  br label %73

73:                                               ; preds = %66, %61
  br label %80

74:                                               ; preds = %56
  %75 = load ptr, ptr %5, align 8, !tbaa !68
  %76 = getelementptr inbounds nuw %struct.H5P_genprop_t, ptr %75, i32 0, i32 4
  store i8 1, ptr %76, align 4, !tbaa !74
  %77 = load i32, ptr %4, align 4, !tbaa !3
  %78 = load ptr, ptr %5, align 8, !tbaa !68
  %79 = getelementptr inbounds nuw %struct.H5P_genprop_t, ptr %78, i32 0, i32 3
  store i32 %77, ptr %79, align 8, !tbaa !73
  br label %80

80:                                               ; preds = %74, %73
  br label %81

81:                                               ; preds = %80, %49
  %82 = load ptr, ptr %3, align 8, !tbaa !68
  %83 = getelementptr inbounds nuw %struct.H5P_genprop_t, ptr %82, i32 0, i32 2
  %84 = load ptr, ptr %83, align 8, !tbaa !75
  %85 = icmp ne ptr %84, null
  br i1 %85, label %86, label %123

86:                                               ; preds = %81
  %87 = load ptr, ptr %5, align 8, !tbaa !68
  %88 = getelementptr inbounds nuw %struct.H5P_genprop_t, ptr %87, i32 0, i32 1
  %89 = load i64, ptr %88, align 8, !tbaa !76
  %90 = call noalias ptr @malloc(i64 noundef %89) #9
  %91 = load ptr, ptr %5, align 8, !tbaa !68
  %92 = getelementptr inbounds nuw %struct.H5P_genprop_t, ptr %91, i32 0, i32 2
  store ptr %90, ptr %92, align 8, !tbaa !75
  %93 = icmp eq ptr null, %90
  br i1 %93, label %94, label %113

94:                                               ; preds = %86
  br label %95

95:                                               ; preds = %94
  br label %96

96:                                               ; preds = %95
  br label %97

97:                                               ; preds = %96
  %98 = load i64, ptr @H5E_RESOURCE_g, align 8, !tbaa !11
  %99 = load i64, ptr @H5E_NOSPACE_g, align 8, !tbaa !11
  %100 = call i32 (ptr, ptr, i32, i64, i64, ptr, ...) @H5E_printf_stack(ptr noundef @.str.7, ptr noundef @__func__.H5P__dup_prop, i32 noundef 1232, i64 noundef %98, i64 noundef %99, ptr noundef @.str.20)
  br label %101

101:                                              ; preds = %97
  br label %102

102:                                              ; preds = %101
  store i8 1, ptr %7, align 1, !tbaa !7
  %103 = load i8, ptr %7, align 1, !tbaa !7, !range !9, !noundef !10
  %104 = trunc i8 %103 to i1
  %105 = zext i1 %104 to i8
  store i8 %105, ptr %7, align 1, !tbaa !7
  br label %106

106:                                              ; preds = %102
  br label %107

107:                                              ; preds = %106
  br label %108

108:                                              ; preds = %107
  store ptr null, ptr %6, align 8, !tbaa !68
  br label %125

109:                                              ; No predecessors!
  br label %110

110:                                              ; preds = %109
  br label %111

111:                                              ; preds = %110
  br label %112

112:                                              ; preds = %111
  br label %113

113:                                              ; preds = %112, %86
  %114 = load ptr, ptr %5, align 8, !tbaa !68
  %115 = getelementptr inbounds nuw %struct.H5P_genprop_t, ptr %114, i32 0, i32 2
  %116 = load ptr, ptr %115, align 8, !tbaa !75
  %117 = load ptr, ptr %3, align 8, !tbaa !68
  %118 = getelementptr inbounds nuw %struct.H5P_genprop_t, ptr %117, i32 0, i32 2
  %119 = load ptr, ptr %118, align 8, !tbaa !75
  %120 = load ptr, ptr %5, align 8, !tbaa !68
  %121 = getelementptr inbounds nuw %struct.H5P_genprop_t, ptr %120, i32 0, i32 1
  %122 = load i64, ptr %121, align 8, !tbaa !76
  call void @llvm.memcpy.p0.p0.i64(ptr align 1 %116, ptr align 1 %119, i64 %122, i1 false)
  br label %123

123:                                              ; preds = %113, %81
  %124 = load ptr, ptr %5, align 8, !tbaa !68
  store ptr %124, ptr %6, align 8, !tbaa !68
  br label %125

125:                                              ; preds = %123, %108, %39
  %126 = load ptr, ptr %6, align 8, !tbaa !68
  %127 = icmp eq ptr %126, null
  br i1 %127, label %128, label %155

128:                                              ; preds = %125
  %129 = load ptr, ptr %5, align 8, !tbaa !68
  %130 = icmp ne ptr %129, null
  br i1 %130, label %131, label %154

131:                                              ; preds = %128
  %132 = load ptr, ptr %5, align 8, !tbaa !68
  %133 = getelementptr inbounds nuw %struct.H5P_genprop_t, ptr %132, i32 0, i32 0
  %134 = load ptr, ptr %133, align 8, !tbaa !71
  %135 = icmp ne ptr %134, null
  br i1 %135, label %136, label %141

136:                                              ; preds = %131
  %137 = load ptr, ptr %5, align 8, !tbaa !68
  %138 = getelementptr inbounds nuw %struct.H5P_genprop_t, ptr %137, i32 0, i32 0
  %139 = load ptr, ptr %138, align 8, !tbaa !71
  %140 = call ptr @H5MM_xfree(ptr noundef %139)
  br label %141

141:                                              ; preds = %136, %131
  %142 = load ptr, ptr %5, align 8, !tbaa !68
  %143 = getelementptr inbounds nuw %struct.H5P_genprop_t, ptr %142, i32 0, i32 2
  %144 = load ptr, ptr %143, align 8, !tbaa !75
  %145 = icmp ne ptr %144, null
  br i1 %145, label %146, label %151

146:                                              ; preds = %141
  %147 = load ptr, ptr %5, align 8, !tbaa !68
  %148 = getelementptr inbounds nuw %struct.H5P_genprop_t, ptr %147, i32 0, i32 2
  %149 = load ptr, ptr %148, align 8, !tbaa !75
  %150 = call ptr @H5MM_xfree(ptr noundef %149)
  br label %151

151:                                              ; preds = %146, %141
  %152 = load ptr, ptr %5, align 8, !tbaa !68
  %153 = call ptr @H5FL_reg_free(ptr noundef @H5_H5P_genprop_t_reg_free_list, ptr noundef %152)
  store ptr %153, ptr %5, align 8, !tbaa !68
  br label %154

154:                                              ; preds = %151, %128
  br label %155

155:                                              ; preds = %154, %125
  br label %156

156:                                              ; preds = %155, %14
  %157 = load ptr, ptr %6, align 8, !tbaa !68
  call void @llvm.lifetime.end.p0(i64 1, ptr %7) #8
  call void @llvm.lifetime.end.p0(i64 8, ptr %6) #8
  call void @llvm.lifetime.end.p0(i64 8, ptr %5) #8
  ret ptr %157
}