; Function Attrs: nounwind uwtable
define internal fastcc ptr @H5P__dup_prop(ptr noundef readonly captures(none) %0, i32 noundef range(i32 1, 3) %1) unnamed_addr #0 {
  %3 = load i8, ptr @H5P_init_g, align 1, !tbaa !3, !range !7, !noundef !8
  %4 = trunc nuw i8 %3 to i1
  %5 = load i8, ptr @H5_libterm_g, align 1, !range !7
  %6 = trunc nuw i8 %5 to i1
  %7 = xor i1 %6, true
  %8 = select i1 %4, i1 true, i1 %7
  br i1 %8, label %9, label %.thread, !prof !9

9:                                                ; preds = %2
  %10 = tail call noalias ptr @H5FL_reg_malloc(ptr noundef nonnull @H5_H5P_genprop_t_reg_free_list) #14
  %11 = icmp eq ptr %10, null
  br i1 %11, label %12, label %16

12:                                               ; preds = %9
  %13 = load i64, ptr @H5E_RESOURCE_g, align 8, !tbaa !10
  %14 = load i64, ptr @H5E_NOSPACE_g, align 8, !tbaa !10
  %15 = tail call i32 (ptr, ptr, i32, i64, i64, ptr, ...) @H5E_printf_stack(ptr noundef nonnull @.str.7, ptr noundef nonnull @__func__.H5P__dup_prop, i32 noundef 1190, i64 noundef %13, i64 noundef %14, ptr noundef nonnull @.str.20) #14
  br label %.thread

16:                                               ; preds = %9
  tail call void @llvm.memcpy.p0.p0.i64(ptr noundef nonnull align 8 dereferenceable(104) %10, ptr noundef nonnull align 8 dereferenceable(104) %0, i64 104, i1 false)
  %17 = icmp eq i32 %1, 2
  br i1 %17, label %18, label %21

18:                                               ; preds = %16
  %19 = load ptr, ptr %0, align 8, !tbaa !61
  %20 = tail call noalias ptr @H5MM_xstrdup(ptr noundef %19) #14
  store ptr %20, ptr %10, align 8, !tbaa !61
  br label %35

21:                                               ; preds = %16
  %22 = getelementptr inbounds nuw i8, ptr %0, i64 24
  %23 = load i32, ptr %22, align 8, !tbaa !70
  %24 = icmp eq i32 %23, 1
  br i1 %24, label %25, label %32

25:                                               ; preds = %21
  %26 = getelementptr inbounds nuw i8, ptr %0, i64 28
  %27 = load i8, ptr %26, align 4, !tbaa !71, !range !7, !noundef !8
  %28 = trunc nuw i8 %27 to i1
  br i1 %28, label %35, label %29

29:                                               ; preds = %25
  %30 = load ptr, ptr %0, align 8, !tbaa !61
  %31 = tail call noalias ptr @H5MM_xstrdup(ptr noundef %30) #14
  store ptr %31, ptr %10, align 8, !tbaa !61
  br label %35

32:                                               ; preds = %21
  %33 = getelementptr inbounds nuw i8, ptr %10, i64 28
  store i8 1, ptr %33, align 4, !tbaa !71
  %34 = getelementptr inbounds nuw i8, ptr %10, i64 24
  store i32 1, ptr %34, align 8, !tbaa !70
  br label %35

35:                                               ; preds = %32, %29, %25, %18
  %36 = getelementptr inbounds nuw i8, ptr %0, i64 16
  %37 = load ptr, ptr %36, align 8, !tbaa !72
  %.not = icmp eq ptr %37, null
  br i1 %.not, label %.thread, label %38

38:                                               ; preds = %35
  %39 = getelementptr inbounds nuw i8, ptr %10, i64 8
  %40 = load i64, ptr %39, align 8, !tbaa !73
  %41 = tail call noalias ptr @malloc(i64 noundef %40) #15
  %42 = getelementptr inbounds nuw i8, ptr %10, i64 16
  store ptr %41, ptr %42, align 8, !tbaa !72
  %43 = icmp eq ptr %41, null
  br i1 %43, label %45, label %44

44:                                               ; preds = %38
  tail call void @llvm.memcpy.p0.p0.i64(ptr nonnull align 1 %41, ptr nonnull align 1 %37, i64 %40, i1 false)
  br label %.thread

45:                                               ; preds = %38
  %46 = load i64, ptr @H5E_RESOURCE_g, align 8, !tbaa !10
  %47 = load i64, ptr @H5E_NOSPACE_g, align 8, !tbaa !10
  %48 = tail call i32 (ptr, ptr, i32, i64, i64, ptr, ...) @H5E_printf_stack(ptr noundef nonnull @.str.7, ptr noundef nonnull @__func__.H5P__dup_prop, i32 noundef 1232, i64 noundef %46, i64 noundef %47, ptr noundef nonnull @.str.20) #14
  %49 = load ptr, ptr %10, align 8, !tbaa !61
  %.not35 = icmp eq ptr %49, null
  br i1 %.not35, label %52, label %50

50:                                               ; preds = %45
  %51 = tail call ptr @H5MM_xfree(ptr noundef nonnull %49) #14
  br label %52

52:                                               ; preds = %45, %50
  %53 = tail call ptr @H5FL_reg_free(ptr noundef nonnull @H5_H5P_genprop_t_reg_free_list, ptr noundef nonnull %10) #14
  br label %.thread

.thread:                                          ; preds = %12, %35, %44, %52, %2
  %.0 = phi ptr [ null, %52 ], [ null, %2 ], [ %10, %35 ], [ %10, %44 ], [ null, %12 ]
  ret ptr %.0
}